target datalayout = "e-m:e-p270:32:32-p271:32:32-p272:64:64-i64:64-i128:128-f80:128-n8:16:32:64-S128"
target triple = "x86_64-pc-linux-gnu"

%"struct.duckdb_hll::sdshdr8" = type { i8, i8, i8, [1 x i8] }
%"struct.duckdb_hll::sdshdr16" = type { i16, i16, i8, [1 x i8] }
%"struct.duckdb_hll::sdshdr32" = type <{ i32, i32, i8, [1 x i8] }>
%"struct.duckdb_hll::sdshdr64" = type <{ i64, i64, i8, [1 x i8] }>

; Function Attrs: inlinehint mustprogress nounwind uwtable
define internal void @_ZN10duckdb_hllL11sdssetallocEPcm(ptr noundef %0, i64 noundef %1) #2 {
  %3 = alloca ptr, align 8
  %4 = alloca i64, align 8
  %5 = alloca i8, align 1
  store ptr %0, ptr %3, align 8, !tbaa !12
  store i64 %1, ptr %4, align 8, !tbaa !7
  call void @llvm.lifetime.start.p0(i64 1, ptr %5) #11
  %6 = load ptr, ptr %3, align 8, !tbaa !12
  %7 = getelementptr inbounds i8, ptr %6, i64 -1
  %8 = load i8, ptr %7, align 1, !tbaa !9
  store i8 %8, ptr %5, align 1, !tbaa !9
  %9 = load i8, ptr %5, align 1, !tbaa !9
  %10 = zext i8 %9 to i32
  %11 = and i32 %10, 7
  switch i32 %11, label %35 [
    i32 0, label %35
    i32 1, label %12
    i32 2, label %18
    i32 3, label %24
    i32 4, label %30
  ]

12:                                               ; preds = %2
  %13 = load i64, ptr %4, align 8, !tbaa !7
  %14 = trunc i64 %13 to i8
  %15 = load ptr, ptr %3, align 8, !tbaa !12
  %16 = getelementptr inbounds i8, ptr %15, i64 -4
  %17 = getelementptr inbounds nuw %"struct.duckdb_hll::sdshdr8", ptr %16, i32 0, i32 1
  store i8 %14, ptr %17, align 1, !tbaa !18
  br label %35

18:                                               ; preds = %2
  %19 = load i64, ptr %4, align 8, !tbaa !7
  %20 = trunc i64 %19 to i16
  %21 = load ptr, ptr %3, align 8, !tbaa !12
  %22 = getelementptr inbounds i8, ptr %21, i64 -6
  %23 = getelementptr inbounds nuw %"struct.duckdb_hll::sdshdr16", ptr %22, i32 0, i32 1
  store i16 %20, ptr %23, align 1, !tbaa !24
  br label %35

24:                                               ; preds = %2
  %25 = load i64, ptr %4, align 8, !tbaa !7
  %26 = trunc i64 %25 to i32
  %27 = load ptr, ptr %3, align 8, !tbaa !12
  %28 = getelementptr inbounds i8, ptr %27, i64 -10
  %29 = getelementptr inbounds nuw %"struct.duckdb_hll::sdshdr32", ptr %28, i32 0, i32 1
  store i32 %26, ptr %29, align 1, !tbaa !29
  br label %35

30:                                               ; preds = %2
  %31 = load i64, ptr %4, align 8, !tbaa !7
  %32 = load ptr, ptr %3, align 8, !tbaa !12
  %33 = getelementptr inbounds i8, ptr %32, i64 -18
  %34 = getelementptr inbounds nuw %"struct.duckdb_hll::sdshdr64", ptr %33, i32 0, i32 1
  store i64 %31, ptr %34, align 1, !tbaa !34
  br label %35

35:                                               ; preds = %2, %30, %24, %18, %12, %2
  call void @llvm.lifetime.end.p0(i64 1, ptr %5) #11
  ret void
}

; Function Attrs: inlinehint mustprogress nounwind uwtable
define internal void @_ZN10duckdb_hllL9sdssetlenEPcm(ptr noundef %0, i64 noundef %1) #2 {
  %3 = alloca ptr, align 8
  %4 = alloca i64, align 8
  %5 = alloca i8, align 1
  %6 = alloca ptr, align 8
  store ptr %0, ptr %3, align 8, !tbaa !12
  store i64 %1, ptr %4, align 8, !tbaa !7
  call void @llvm.lifetime.start.p0(i64 1, ptr %5) #11
  %7 = load ptr, ptr %3, align 8, !tbaa !12
  %8 = getelementptr inbounds i8, ptr %7, i64 -1
  %9 = load i8, ptr %8, align 1, !tbaa !9
  store i8 %9, ptr %5, align 1, !tbaa !9
  %10 = load i8, ptr %5, align 1, !tbaa !9
  %11 = zext i8 %10 to i32
  %12 = and i32 %11, 7
  switch i32 %12, label %44 [
    i32 0, label %13
    i32 1, label %21
    i32 2, label %27
    i32 3, label %33
    i32 4, label %39
  ]

13:                                               ; preds = %2
  call void @llvm.lifetime.start.p0(i64 8, ptr %6) #11
  %14 = load ptr, ptr %3, align 8, !tbaa !12
  %15 = getelementptr inbounds i8, ptr %14, i64 -1
  store ptr %15, ptr %6, align 8, !tbaa !12
  %16 = load i64, ptr %4, align 8, !tbaa !7
  %17 = shl i64 %16, 3
  %18 = or i64 0, %17
  %19 = trunc i64 %18 to i8
  %20 = load ptr, ptr %6, align 8, !tbaa !12
  store i8 %19, ptr %20, align 1, !tbaa !9
  call void @llvm.lifetime.end.p0(i64 8, ptr %6) #11
  br label %44

21:                                               ; preds = %2
  %22 = load i64, ptr %4, align 8, !tbaa !7
  %23 = trunc i64 %22 to i8
  %24 = load ptr, ptr %3, align 8, !tbaa !12
  %25 = getelementptr inbounds i8, ptr %24, i64 -4
  %26 = getelementptr inbounds nuw %"struct.duckdb_hll::sdshdr8", ptr %25, i32 0, i32 0
  store i8 %23, ptr %26, align 1, !tbaa !16
  br label %44

27:                                               ; preds = %2
  %28 = load i64, ptr %4, align 8, !tbaa !7
  %29 = trunc i64 %28 to i16
  %30 = load ptr, ptr %3, align 8, !tbaa !12
  %31 = getelementptr inbounds i8, ptr %30, i64 -6
  %32 = getelementptr inbounds nuw %"struct.duckdb_hll::sdshdr16", ptr %31, i32 0, i32 0
  store i16 %29, ptr %32, align 1, !tbaa !21
  br label %44

33:                                               ; preds = %2
  %34 = load i64, ptr %4, align 8, !tbaa !7
  %35 = trunc i64 %34 to i32
  %36 = load ptr, ptr %3, align 8, !tbaa !12
  %37 = getelementptr inbounds i8, ptr %36, i64 -10
  %38 = getelementptr inbounds nuw %"struct.duckdb_hll::sdshdr32", ptr %37, i32 0, i32 0
  store i32 %35, ptr %38, align 1, !tbaa !27
  br label %44

39:                                               ; preds = %2
  %40 = load i64, ptr %4, align 8, !tbaa !7
  %41 = load ptr, ptr %3, align 8, !tbaa !12
  %42 = getelementptr inbounds i8, ptr %41, i64 -18
  %43 = getelementptr inbounds nuw %"struct.duckdb_hll::sdshdr64", ptr %42, i32 0, i32 0
  store i64 %40, ptr %43, align 1, !tbaa !32
  br label %44

44:                                               ; preds = %2, %39, %33, %27, %21, %13
  call void @llvm.lifetime.end.p0(i64 1, ptr %5) #11
  ret void
}

; Function Attrs: inlinehint mustprogress nounwind uwtable
define internal noundef signext i8 @_ZN10duckdb_hllL10sdsReqTypeEm(i64 noundef %0) #2 {
  %2 = alloca i8, align 1
  %3 = alloca i64, align 8
  store i64 %0, ptr %3, align 8, !tbaa !7
  %4 = load i64, ptr %3, align 8, !tbaa !7
  %5 = icmp ult i64 %4, 32
  br i1 %5, label %6, label %7

6:                                                ; preds = %1
  store i8 0, ptr %2, align 1
  br label %20

7:                                                ; preds = %1
  %8 = load i64, ptr %3, align 8, !tbaa !7
  %9 = icmp ult i64 %8, 256
  br i1 %9, label %10, label %11

10:                                               ; preds = %7
  store i8 1, ptr %2, align 1
  br label %20

11:                                               ; preds = %7
  %12 = load i64, ptr %3, align 8, !tbaa !7
  %13 = icmp ult i64 %12, 65536
  br i1 %13, label %14, label %15

14:                                               ; preds = %11
  store i8 2, ptr %2, align 1
  br label %20

15:                                               ; preds = %11
  %16 = load i64, ptr %3, align 8, !tbaa !7
  %17 = icmp ult i64 %16, 4294967296
  br i1 %17, label %18, label %19

18:                                               ; preds = %15
  store i8 3, ptr %2, align 1
  br label %20

19:                                               ; preds = %15
  store i8 4, ptr %2, align 1
  br label %20

20:                                               ; preds = %19, %18, %14, %10, %6
  %21 = load i8, ptr %2, align 1
  ret i8 %21
}

; Function Attrs: inlinehint mustprogress nounwind uwtable
define internal noundef i64 @_ZN10duckdb_hllL6sdslenEPc(ptr noundef %0) #2 {
  %2 = alloca i64, align 8
  %3 = alloca ptr, align 8
  %4 = alloca i8, align 1
  %5 = alloca i32, align 4
  store ptr %0, ptr %3, align 8, !tbaa !12
  call void @llvm.lifetime.start.p0(i64 1, ptr %4) #11
  %6 = load ptr, ptr %3, align 8, !tbaa !12
  %7 = getelementptr inbounds i8, ptr %6, i64 -1
  %8 = load i8, ptr %7, align 1, !tbaa !9
  store i8 %8, ptr %4, align 1, !tbaa !9
  %9 = load i8, ptr %4, align 1, !tbaa !9
  %10 = zext i8 %9 to i32
  %11 = and i32 %10, 7
  switch i32 %11, label %40 [
    i32 0, label %12
    i32 1, label %17
    i32 2, label %23
    i32 3, label %29
    i32 4, label %35
  ]

12:                                               ; preds = %1
  %13 = load i8, ptr %4, align 1, !tbaa !9
  %14 = zext i8 %13 to i32
  %15 = ashr i32 %14, 3
  %16 = sext i32 %15 to i64
  store i64 %16, ptr %2, align 8
  store i32 1, ptr %5, align 4
  br label %41

17:                                               ; preds = %1
  %18 = load ptr, ptr %3, align 8, !tbaa !12
  %19 = getelementptr inbounds i8, ptr %18, i64 -4
  %20 = getelementptr inbounds nuw %"struct.duckdb_hll::sdshdr8", ptr %19, i32 0, i32 0
  %21 = load i8, ptr %20, align 1, !tbaa !16
  %22 = zext i8 %21 to i64
  store i64 %22, ptr %2, align 8
  store i32 1, ptr %5, align 4
  br label %41

23:                                               ; preds = %1
  %24 = load ptr, ptr %3, align 8, !tbaa !12
  %25 = getelementptr inbounds i8, ptr %24, i64 -6
  %26 = getelementptr inbounds nuw %"struct.duckdb_hll::sdshdr16", ptr %25, i32 0, i32 0
  %27 = load i16, ptr %26, align 1, !tbaa !21
  %28 = zext i16 %27 to i64
  store i64 %28, ptr %2, align 8
  store i32 1, ptr %5, align 4
  br label %41

29:                                               ; preds = %1
  %30 = load ptr, ptr %3, align 8, !tbaa !12
  %31 = getelementptr inbounds i8, ptr %30, i64 -10
  %32 = getelementptr inbounds nuw %"struct.duckdb_hll::sdshdr32", ptr %31, i32 0, i32 0
  %33 = load i32, ptr %32, align 1, !tbaa !27
  %34 = zext i32 %33 to i64
  store i64 %34, ptr %2, align 8
  store i32 1, ptr %5, align 4
  br label %41

35:                                               ; preds = %1
  %36 = load ptr, ptr %3, align 8, !tbaa !12
  %37 = getelementptr inbounds i8, ptr %36, i64 -18
  %38 = getelementptr inbounds nuw %"struct.duckdb_hll::sdshdr64", ptr %37, i32 0, i32 0
  %39 = load i64, ptr %38, align 1, !tbaa !32
  store i64 %39, ptr %2, align 8
  store i32 1, ptr %5, align 4
  br label %41

40:                                               ; preds = %1
  store i64 0, ptr %2, align 8
  store i32 1, ptr %5, align 4
  br label %41

41:                                               ; preds = %40, %35, %29, %23, %17, %12
  call void @llvm.lifetime.end.p0(i64 1, ptr %4) #11
  %42 = load i64, ptr %2, align 8
  ret i64 %42
}

; Function Attrs: inlinehint mustprogress nounwind uwtable
define internal noundef i32 @_ZN10duckdb_hllL10sdsHdrSizeEc(i8 noundef signext %0) #2 {
  %2 = alloca i32, align 4
  %3 = alloca i8, align 1
  store i8 %0, ptr %3, align 1, !tbaa !9
  %4 = load i8, ptr %3, align 1, !tbaa !9
  %5 = sext i8 %4 to i32
  %6 = and i32 %5, 7
  switch i32 %6, label %12 [
    i32 0, label %7
    i32 1, label %8
    i32 2, label %9
    i32 3, label %10
    i32 4, label %11
  ]

7:                                                ; preds = %1
  store i32 2, ptr %2, align 4
  br label %13

8:                                                ; preds = %1
  store i32 4, ptr %2, align 4
  br label %13

9:                                                ; preds = %1
  store i32 6, ptr %2, align 4
  br label %13

10:                                               ; preds = %1
  store i32 10, ptr %2, align 4
  br label %13

11:                                               ; preds = %1
  store i32 18, ptr %2, align 4
  br label %13

12:                                               ; preds = %1
  store i32 0, ptr %2, align 4
  br label %13

13:                                               ; preds = %12, %11, %10, %9, %8, %7
  %14 = load i32, ptr %2, align 4
  ret i32 %14
}

; Function Attrs: mustprogress uwtable
define noundef ptr @_ZN10duckdb_hll18sdsRemoveFreeSpaceEPc(ptr noundef %0) #0 {
  %2 = alloca ptr, align 8
  %3 = alloca ptr, align 8
  %4 = alloca ptr, align 8
  %5 = alloca ptr, align 8
  %6 = alloca i8, align 1
  %7 = alloca i8, align 1
  %8 = alloca i32, align 4
  %9 = alloca i32, align 4
  %10 = alloca i64, align 8
  %11 = alloca i32, align 4
  store ptr %0, ptr %3, align 8, !tbaa !12
  call void @llvm.lifetime.start.p0(i64 8, ptr %4) #11
  call void @llvm.lifetime.start.p0(i64 8, ptr %5) #11
  call void @llvm.lifetime.start.p0(i64 1, ptr %6) #11
  call void @llvm.lifetime.start.p0(i64 1, ptr %7) #11
  %12 = load ptr, ptr %3, align 8, !tbaa !12
  %13 = getelementptr inbounds i8, ptr %12, i64 -1
  %14 = load i8, ptr %13, align 1, !tbaa !9
  %15 = sext i8 %14 to i32
  %16 = and i32 %15, 7
  %17 = trunc i32 %16 to i8
  store i8 %17, ptr %7, align 1, !tbaa !9
  call void @llvm.lifetime.start.p0(i64 4, ptr %8) #11
  call void @llvm.lifetime.start.p0(i64 4, ptr %9) #11
  %18 = load i8, ptr %7, align 1, !tbaa !9
  %19 = call noundef i32 @_ZN10duckdb_hllL10sdsHdrSizeEc(i8 noundef signext %18)
  store i32 %19, ptr %9, align 4, !tbaa !10
  call void @llvm.lifetime.start.p0(i64 8, ptr %10) #11
  %20 = load ptr, ptr %3, align 8, !tbaa !12
  %21 = call noundef i64 @_ZN10duckdb_hllL6sdslenEPc(ptr noundef %20)
  store i64 %21, ptr %10, align 8, !tbaa !7
  %22 = load ptr, ptr %3, align 8, !tbaa !12
  %23 = load i32, ptr %9, align 4, !tbaa !10
  %24 = sext i32 %23 to i64
  %25 = sub i64 0, %24
  %26 = getelementptr inbounds i8, ptr %22, i64 %25
  store ptr %26, ptr %4, align 8, !tbaa !3
  %27 = load i64, ptr %10, align 8, !tbaa !7
  %28 = call noundef signext i8 @_ZN10duckdb_hllL10sdsReqTypeEm(i64 noundef %27)
  store i8 %28, ptr %6, align 1, !tbaa !9
  %29 = load i8, ptr %6, align 1, !tbaa !9
  %30 = call noundef i32 @_ZN10duckdb_hllL10sdsHdrSizeEc(i8 noundef signext %29)
  store i32 %30, ptr %8, align 4, !tbaa !10
  %31 = load i8, ptr %7, align 1, !tbaa !9
  %32 = sext i8 %31 to i32
  %33 = load i8, ptr %6, align 1, !tbaa !9
  %34 = sext i8 %33 to i32
  %35 = icmp eq i32 %32, %34
  br i1 %35, label %40, label %36

36:                                               ; preds = %1
  %37 = load i8, ptr %6, align 1, !tbaa !9
  %38 = sext i8 %37 to i32
  %39 = icmp sgt i32 %38, 1
  br i1 %39, label %40, label %56

40:                                               ; preds = %36, %1
  %41 = load ptr, ptr %4, align 8, !tbaa !3
  %42 = load i32, ptr %9, align 4, !tbaa !10
  %43 = sext i32 %42 to i64
  %44 = load i64, ptr %10, align 8, !tbaa !7
  %45 = add i64 %43, %44
  %46 = add i64 %45, 1
  %47 = call ptr @realloc(ptr noundef %41, i64 noundef %46) #14
  store ptr %47, ptr %5, align 8, !tbaa !3
  %48 = load ptr, ptr %5, align 8, !tbaa !3
  %49 = icmp eq ptr %48, null
  br i1 %49, label %50, label %51

50:                                               ; preds = %40
  store ptr null, ptr %2, align 8
  store i32 1, ptr %11, align 4
  br label %88

51:                                               ; preds = %40
  %52 = load ptr, ptr %5, align 8, !tbaa !3
  %53 = load i32, ptr %9, align 4, !tbaa !10
  %54 = sext i32 %53 to i64
  %55 = getelementptr inbounds i8, ptr %52, i64 %54
  store ptr %55, ptr %3, align 8, !tbaa !12
  br label %84

56:                                               ; preds = %36
  %57 = load i32, ptr %8, align 4, !tbaa !10
  %58 = sext i32 %57 to i64
  %59 = load i64, ptr %10, align 8, !tbaa !7
  %60 = add i64 %58, %59
  %61 = add i64 %60, 1
  %62 = call noalias ptr @malloc(i64 noundef %61) #12
  store ptr %62, ptr %5, align 8, !tbaa !3
  %63 = load ptr, ptr %5, align 8, !tbaa !3
  %64 = icmp eq ptr %63, null
  br i1 %64, label %65, label %66

65:                                               ; preds = %56
  store ptr null, ptr %2, align 8
  store i32 1, ptr %11, align 4
  br label %88

66:                                               ; preds = %56
  %67 = load ptr, ptr %5, align 8, !tbaa !3
  %68 = load i32, ptr %8, align 4, !tbaa !10
  %69 = sext i32 %68 to i64
  %70 = getelementptr inbounds i8, ptr %67, i64 %69
  %71 = load ptr, ptr %3, align 8, !tbaa !12
  %72 = load i64, ptr %10, align 8, !tbaa !7
  %73 = add i64 %72, 1
  call void @llvm.memcpy.p0.p0.i64(ptr align 1 %70, ptr align 1 %71, i64 %73, i1 false)
  %74 = load ptr, ptr %4, align 8, !tbaa !3
  call void @free(ptr noundef %74) #11
  %75 = load ptr, ptr %5, align 8, !tbaa !3
  %76 = load i32, ptr %8, align 4, !tbaa !10
  %77 = sext i32 %76 to i64
  %78 = getelementptr inbounds i8, ptr %75, i64 %77
  store ptr %78, ptr %3, align 8, !tbaa !12
  %79 = load i8, ptr %6, align 1, !tbaa !9
  %80 = load ptr, ptr %3, align 8, !tbaa !12
  %81 = getelementptr inbounds i8, ptr %80, i64 -1
  store i8 %79, ptr %81, align 1, !tbaa !9
  %82 = load ptr, ptr %3, align 8, !tbaa !12
  %83 = load i64, ptr %10, align 8, !tbaa !7
  call void @_ZN10duckdb_hllL9sdssetlenEPcm(ptr noundef %82, i64 noundef %83)
  br label %84

84:                                               ; preds = %66, %51
  %85 = load ptr, ptr %3, align 8, !tbaa !12
  %86 = load i64, ptr %10, align 8, !tbaa !7
  call void @_ZN10duckdb_hllL11sdssetallocEPcm(ptr noundef %85, i64 noundef %86)
  %87 = load ptr, ptr %3, align 8, !tbaa !12
  store ptr %87, ptr %2, align 8
  store i32 1, ptr %11, align 4
  br label %88

88:                                               ; preds = %84, %65, %50
  call void @llvm.lifetime.end.p0(i64 8, ptr %10) #11
  call void @llvm.lifetime.end.p0(i64 4, ptr %9) #11
  call void @llvm.lifetime.end.p0(i64 4, ptr %8) #11
  call void @llvm.lifetime.end.p0(i64 1, ptr %7) #11
  call void @llvm.lifetime.end.p0(i64 1, ptr %6) #11
  call void @llvm.lifetime.end.p0(i64 8, ptr %5) #11
  call void @llvm.lifetime.end.p0(i64 8, ptr %4) #11
  %89 = load ptr, ptr %2, align 8
  ret ptr %89
}