; Function Attrs: mustprogress nounwind willreturn uwtable
define noalias noundef ptr @_ZN10duckdb_hll18sdsRemoveFreeSpaceEPc(ptr noundef captures(none) %0) local_unnamed_addr #11 {
  %2 = getelementptr inbounds i8, ptr %0, i64 -1
  %3 = load i8, ptr %2, align 1, !tbaa !20
  %4 = and i8 %3, 7
  %5 = icmp samesign ult i8 %4, 5
  br i1 %5, label %switch.lookup, label %_ZN10duckdb_hllL10sdsHdrSizeEc.exit

switch.lookup:                                    ; preds = %1
  %6 = zext nneg i8 %4 to i64
  %switch.gep = getelementptr inbounds nuw [5 x i64], ptr @switch.table._ZN10duckdb_hll11sdssplitlenEPKclS1_iPi.2, i64 0, i64 %6
  %switch.load = load i64, ptr %switch.gep, align 8
  br label %_ZN10duckdb_hllL10sdsHdrSizeEc.exit

_ZN10duckdb_hllL10sdsHdrSizeEc.exit:              ; preds = %1, %switch.lookup
  %.0.i = phi i64 [ %switch.load, %switch.lookup ], [ 0, %1 ]
  %7 = zext i8 %3 to i32
  %8 = and i32 %7, 7
  switch i32 %8, label %_ZN10duckdb_hllL6sdslenEPc.exit.thread [
    i32 0, label %9
    i32 1, label %12
    i32 2, label %16
    i32 3, label %20
    i32 4, label %24
  ]

9:                                                ; preds = %_ZN10duckdb_hllL10sdsHdrSizeEc.exit
  %10 = lshr i32 %7, 3
  %11 = zext nneg i32 %10 to i64
  br label %_ZN10duckdb_hllL6sdslenEPc.exit.thread

12:                                               ; preds = %_ZN10duckdb_hllL10sdsHdrSizeEc.exit
  %13 = getelementptr inbounds i8, ptr %0, i64 -4
  %14 = load i8, ptr %13, align 1, !tbaa !3
  %15 = zext i8 %14 to i64
  br label %_ZN10duckdb_hllL6sdslenEPc.exit

16:                                               ; preds = %_ZN10duckdb_hllL10sdsHdrSizeEc.exit
  %17 = getelementptr inbounds i8, ptr %0, i64 -6
  %18 = load i16, ptr %17, align 1, !tbaa !8
  %19 = zext i16 %18 to i64
  br label %_ZN10duckdb_hllL6sdslenEPc.exit

20:                                               ; preds = %_ZN10duckdb_hllL10sdsHdrSizeEc.exit
  %21 = getelementptr inbounds i8, ptr %0, i64 -10
  %22 = load i32, ptr %21, align 1, !tbaa !12
  %23 = zext i32 %22 to i64
  br label %_ZN10duckdb_hllL6sdslenEPc.exit

24:                                               ; preds = %_ZN10duckdb_hllL10sdsHdrSizeEc.exit
  %25 = getelementptr inbounds i8, ptr %0, i64 -18
  %26 = load i64, ptr %25, align 1, !tbaa !16
  br label %_ZN10duckdb_hllL6sdslenEPc.exit

_ZN10duckdb_hllL6sdslenEPc.exit.thread:           ; preds = %9, %_ZN10duckdb_hllL10sdsHdrSizeEc.exit
  %.0.i38.ph = phi i64 [ 0, %_ZN10duckdb_hllL10sdsHdrSizeEc.exit ], [ %11, %9 ]
  %27 = sub nsw i64 0, %.0.i
  %28 = getelementptr inbounds i8, ptr %0, i64 %27
  br label %_ZN10duckdb_hllL10sdsHdrSizeEc.exit41

_ZN10duckdb_hllL6sdslenEPc.exit:                  ; preds = %12, %16, %20, %24
  %.0.i38 = phi i64 [ %26, %24 ], [ %23, %20 ], [ %19, %16 ], [ %15, %12 ]
  %29 = sub nsw i64 0, %.0.i
  %30 = getelementptr inbounds i8, ptr %0, i64 %29
  %31 = icmp ult i64 %.0.i38, 32
  br i1 %31, label %_ZN10duckdb_hllL10sdsHdrSizeEc.exit41, label %32

32:                                               ; preds = %_ZN10duckdb_hllL6sdslenEPc.exit
  %33 = icmp ult i64 %.0.i38, 256
  br i1 %33, label %_ZN10duckdb_hllL10sdsHdrSizeEc.exit41, label %_ZN10duckdb_hllL10sdsHdrSizeEc.exit41.thread

_ZN10duckdb_hllL10sdsHdrSizeEc.exit41:            ; preds = %_ZN10duckdb_hllL6sdslenEPc.exit.thread, %_ZN10duckdb_hllL6sdslenEPc.exit, %32
  %switch = phi i1 [ false, %32 ], [ true, %_ZN10duckdb_hllL6sdslenEPc.exit ], [ true, %_ZN10duckdb_hllL6sdslenEPc.exit.thread ]
  %34 = phi i8 [ 1, %32 ], [ 0, %_ZN10duckdb_hllL6sdslenEPc.exit ], [ 0, %_ZN10duckdb_hllL6sdslenEPc.exit.thread ]
  %.0.i384348 = phi i64 [ %.0.i38, %32 ], [ %.0.i38, %_ZN10duckdb_hllL6sdslenEPc.exit ], [ %.0.i38.ph, %_ZN10duckdb_hllL6sdslenEPc.exit.thread ]
  %35 = phi ptr [ %30, %32 ], [ %30, %_ZN10duckdb_hllL6sdslenEPc.exit ], [ %28, %_ZN10duckdb_hllL6sdslenEPc.exit.thread ]
  %.0.i40 = phi i64 [ 4, %32 ], [ 2, %_ZN10duckdb_hllL6sdslenEPc.exit ], [ 2, %_ZN10duckdb_hllL6sdslenEPc.exit.thread ]
  %36 = icmp eq i8 %4, %34
  br i1 %36, label %_ZN10duckdb_hllL10sdsHdrSizeEc.exit41.thread, label %44

_ZN10duckdb_hllL10sdsHdrSizeEc.exit41.thread:     ; preds = %32, %_ZN10duckdb_hllL10sdsHdrSizeEc.exit41
  %37 = phi ptr [ %35, %_ZN10duckdb_hllL10sdsHdrSizeEc.exit41 ], [ %30, %32 ]
  %.0.i38434865 = phi i64 [ %.0.i384348, %_ZN10duckdb_hllL10sdsHdrSizeEc.exit41 ], [ %.0.i38, %32 ]
  %38 = or disjoint i64 %.0.i, 1
  %39 = add i64 %38, %.0.i38434865
  %40 = tail call ptr @realloc(ptr noundef %37, i64 noundef %39) #31
  %41 = icmp eq ptr %40, null
  br i1 %41, label %_ZN10duckdb_hllL11sdssetallocEPcm.exit, label %42

42:                                               ; preds = %_ZN10duckdb_hllL10sdsHdrSizeEc.exit41.thread
  %43 = getelementptr inbounds nuw i8, ptr %40, i64 %.0.i
  %.phi.trans.insert = getelementptr inbounds i8, ptr %43, i64 -1
  %.pre = load i8, ptr %.phi.trans.insert, align 1, !tbaa !20
  br label %_ZN10duckdb_hllL9sdssetlenEPcm.exit

44:                                               ; preds = %_ZN10duckdb_hllL10sdsHdrSizeEc.exit41
  %45 = add nuw nsw i64 %.0.i384348, 1
  %46 = add nuw nsw i64 %45, %.0.i40
  %47 = tail call noalias ptr @malloc(i64 noundef %46) #28
  %48 = icmp eq ptr %47, null
  br i1 %48, label %_ZN10duckdb_hllL11sdssetallocEPcm.exit, label %49

49:                                               ; preds = %44
  %50 = getelementptr inbounds nuw i8, ptr %47, i64 %.0.i40
  tail call void @llvm.memcpy.p0.p0.i64(ptr noundef nonnull align 1 dereferenceable(1) %50, ptr noundef nonnull align 1 dereferenceable(1) %0, i64 %45, i1 false)
  tail call void @free(ptr noundef %35) #30
  %51 = getelementptr inbounds i8, ptr %50, i64 -1
  store i8 %34, ptr %51, align 1, !tbaa !20
  %.tr.i = trunc i64 %.0.i384348 to i8
  br i1 %switch, label %52, label %54

52:                                               ; preds = %49
  %53 = shl i8 %.tr.i, 3
  store i8 %53, ptr %51, align 1, !tbaa !20
  br label %_ZN10duckdb_hllL9sdssetlenEPcm.exit

54:                                               ; preds = %49
  %55 = getelementptr inbounds i8, ptr %50, i64 -4
  store i8 %.tr.i, ptr %55, align 1, !tbaa !3
  br label %_ZN10duckdb_hllL9sdssetlenEPcm.exit

_ZN10duckdb_hllL9sdssetlenEPcm.exit:              ; preds = %54, %52, %42
  %56 = phi i8 [ %.pre, %42 ], [ %53, %52 ], [ %34, %54 ]
  %.0.i3844 = phi i64 [ %.0.i38434865, %42 ], [ %.0.i384348, %52 ], [ %.0.i384348, %54 ]
  %.035 = phi ptr [ %43, %42 ], [ %50, %52 ], [ %50, %54 ]
  %57 = and i8 %56, 7
  switch i8 %57, label %_ZN10duckdb_hllL11sdssetallocEPcm.exit [
    i8 4, label %67
    i8 1, label %58
    i8 2, label %61
    i8 3, label %64
  ]

58:                                               ; preds = %_ZN10duckdb_hllL9sdssetlenEPcm.exit
  %59 = trunc i64 %.0.i3844 to i8
  %60 = getelementptr inbounds i8, ptr %.035, i64 -3
  store i8 %59, ptr %60, align 1, !tbaa !7
  br label %_ZN10duckdb_hllL11sdssetallocEPcm.exit

61:                                               ; preds = %_ZN10duckdb_hllL9sdssetlenEPcm.exit
  %62 = trunc i64 %.0.i3844 to i16
  %63 = getelementptr inbounds i8, ptr %.035, i64 -4
  store i16 %62, ptr %63, align 1, !tbaa !11
  br label %_ZN10duckdb_hllL11sdssetallocEPcm.exit

64:                                               ; preds = %_ZN10duckdb_hllL9sdssetlenEPcm.exit
  %65 = trunc i64 %.0.i3844 to i32
  %66 = getelementptr inbounds i8, ptr %.035, i64 -6
  store i32 %65, ptr %66, align 1, !tbaa !15
  br label %_ZN10duckdb_hllL11sdssetallocEPcm.exit

67:                                               ; preds = %_ZN10duckdb_hllL9sdssetlenEPcm.exit
  %68 = getelementptr inbounds i8, ptr %.035, i64 -10
  store i64 %.0.i3844, ptr %68, align 1, !tbaa !19
  br label %_ZN10duckdb_hllL11sdssetallocEPcm.exit

_ZN10duckdb_hllL11sdssetallocEPcm.exit:           ; preds = %67, %64, %61, %58, %_ZN10duckdb_hllL9sdssetlenEPcm.exit, %44, %_ZN10duckdb_hllL10sdsHdrSizeEc.exit41.thread
  %.0 = phi ptr [ null, %_ZN10duckdb_hllL10sdsHdrSizeEc.exit41.thread ], [ null, %44 ], [ %.035, %_ZN10duckdb_hllL9sdssetlenEPcm.exit ], [ %.035, %58 ], [ %.035, %61 ], [ %.035, %64 ], [ %.035, %67 ]
  ret ptr %.0
}